target datalayout = "e-m:e-p270:32:32-p271:32:32-p272:64:64-i64:64-i128:128-f80:128-n8:16:32:64-S128"
target triple = "x86_64-pc-linux-gnu"

%struct.darktable_t = type { %struct.dt_codepath_t, i32, i32, ptr, ptr, ptr, ptr, ptr, ptr, ptr, ptr, ptr, ptr, ptr, ptr, ptr, ptr, ptr, ptr, ptr, ptr, ptr, ptr, ptr, ptr, ptr, ptr, ptr, ptr, ptr, [64 x %struct.dt_pthread_mutex_t], %struct.dt_pthread_mutex_t, %struct.dt_pthread_mutex_t, %struct.dt_pthread_mutex_t, %struct.dt_pthread_mutex_t, %struct.dt_pthread_mutex_t, ptr, ptr, ptr, ptr, ptr, ptr, ptr, ptr, ptr, ptr, ptr, ptr, ptr, %struct.dt_lua_state_t, ptr, double, ptr, i32, [47 x i32], i32, i32, ptr, ptr, %struct.dt_sys_resources_t, %struct.dt_backthumb_t, %struct.dt_gimp_t }
%struct.dt_codepath_t = type { i8, [3 x i8] }
%struct.dt_pthread_mutex_t = type { %union.pthread_mutex_t }
%union.pthread_mutex_t = type { %struct.__pthread_mutex_s }
%struct.__pthread_mutex_s = type { i32, i32, i32, i32, i32, i16, i16, %struct.__pthread_internal_list }
%struct.__pthread_internal_list = type { ptr, ptr }
%struct.dt_lua_state_t = type { i32 }
%struct.dt_sys_resources_t = type { i64, i64, ptr, ptr, i32 }
%struct.dt_backthumb_t = type { double, double, i32, i32, i32, i32 }
%struct.dt_gimp_t = type { i32, ptr, ptr, i32, i32 }
%struct.dt_iop_lut3d_params_t = type { [512 x i8], i32, i32, i32, [12288 x i8], [128 x i8] }
%struct.dt_dev_histogram_stats_t = type { i32, i64, i32, i32 }
%struct.dt_iop_module_t = type { i32, ptr, ptr, ptr, ptr, ptr, ptr, ptr, ptr, ptr, ptr, ptr, ptr, ptr, ptr, ptr, ptr, ptr, ptr, ptr, ptr, ptr, ptr, ptr, ptr, ptr, ptr, ptr, ptr, ptr, ptr, ptr, ptr, ptr, ptr, ptr, ptr, ptr, ptr, ptr, ptr, ptr, ptr, ptr, ptr, ptr, ptr, ptr, ptr, ptr, ptr, ptr, ptr, ptr, ptr, ptr, ptr, [20 x i8], i32, i32, i32, i32, i32, i32, i32, [8 x i8], [4 x float], [4 x float], [4 x float], [4 x float], [4 x float], [4 x float], ptr, %struct.dt_dev_histogram_stats_t, [4 x i32], i32, i32, ptr, i32, i32, ptr, ptr, i32, ptr, %struct.dt_pthread_mutex_t, ptr, ptr, ptr, ptr, %struct.anon.1, ptr, ptr, ptr, ptr, ptr, ptr, ptr, i32, ptr, ptr, ptr, ptr, ptr, ptr, ptr, i32, ptr, i32, [128 x i8], i32, ptr, ptr, i32, [12 x i8] }
%struct.anon.1 = type { %struct.anon.2, %struct.anon.3 }
%struct.anon.2 = type { ptr, ptr }
%struct.anon.3 = type { ptr, i32 }
%struct.dt_iop_lut3d_gui_data_t = type { ptr, ptr, ptr, ptr, ptr, ptr, ptr, i64 }
%struct.dt_gui_gtk_t = type { ptr, %struct.dt_gui_widgets_t, %struct.dt_gui_scrollbars_t, i32, ptr, i32, [39 x %struct._GdkRGBA], i32, i32, i32, i32, i32, double, double, double, double, ptr, double, double, double, double, i32, i32, [4096 x i8], i32, i32, i32, %struct.dt_pthread_mutex_t }
%struct.dt_gui_widgets_t = type { ptr, ptr, ptr, ptr, i32, i32, i32 }
%struct.dt_gui_scrollbars_t = type { ptr, ptr, i32 }
%struct._GdkRGBA = type { double, double, double, double }

@invalid_filepath_prefix = hidden constant [12 x i8] c"INVALID >> \00", align 1
@darktable = external global %struct.darktable_t, align 8
@.str.68 = private unnamed_addr constant [1 x i8] zeroinitializer, align 1
@.str.79 = private unnamed_addr constant [5 x i8] c".gmz\00", align 1
@.str.129 = private unnamed_addr constant [5 x i8] c".GMZ\00", align 1

; Function Attrs: nounwind uwtable
define hidden void @filepath_set_unix_separator(ptr noundef %0) #0 {
  %2 = alloca ptr, align 8
  %3 = alloca i32, align 4
  %4 = alloca i32, align 4
  store ptr %0, ptr %2, align 8, !tbaa !41
  call void @llvm.lifetime.start.p0(i64 4, ptr %3) #13
  %5 = load ptr, ptr %2, align 8, !tbaa !41
  %6 = call i64 @strlen(ptr noundef %5) #15
  %7 = trunc i64 %6 to i32
  store i32 %7, ptr %3, align 4, !tbaa !16
  call void @llvm.lifetime.start.p0(i64 4, ptr %4) #13
  store i32 0, ptr %4, align 4, !tbaa !16
  br label %8

8:                                                ; preds = %27, %1
  %9 = load i32, ptr %4, align 4, !tbaa !16
  %10 = load i32, ptr %3, align 4, !tbaa !16
  %11 = icmp slt i32 %9, %10
  br i1 %11, label %13, label %12

12:                                               ; preds = %8
  call void @llvm.lifetime.end.p0(i64 4, ptr %4) #13
  br label %30

13:                                               ; preds = %8
  %14 = load ptr, ptr %2, align 8, !tbaa !41
  %15 = load i32, ptr %4, align 4, !tbaa !16
  %16 = sext i32 %15 to i64
  %17 = getelementptr inbounds i8, ptr %14, i64 %16
  %18 = load i8, ptr %17, align 1, !tbaa !47
  %19 = sext i8 %18 to i32
  %20 = icmp eq i32 %19, 92
  br i1 %20, label %21, label %26

21:                                               ; preds = %13
  %22 = load ptr, ptr %2, align 8, !tbaa !41
  %23 = load i32, ptr %4, align 4, !tbaa !16
  %24 = sext i32 %23 to i64
  %25 = getelementptr inbounds i8, ptr %22, i64 %24
  store i8 47, ptr %25, align 1, !tbaa !47
  br label %26

26:                                               ; preds = %21, %13
  br label %27

27:                                               ; preds = %26
  %28 = load i32, ptr %4, align 4, !tbaa !16
  %29 = add nsw i32 %28, 1
  store i32 %29, ptr %4, align 4, !tbaa !16
  br label %8

30:                                               ; preds = %12
  call void @llvm.lifetime.end.p0(i64 4, ptr %3) #13
  ret void
}

; Function Attrs: nounwind uwtable
define internal void @filepath_callback(ptr noundef %0, ptr noundef %1) #0 {
  %3 = alloca ptr, align 8
  %4 = alloca ptr, align 8
  %5 = alloca ptr, align 8
  %6 = alloca [512 x i8], align 16
  %7 = alloca ptr, align 8
  store ptr %0, ptr %3, align 8, !tbaa !197
  store ptr %1, ptr %4, align 8, !tbaa !6
  %8 = load ptr, ptr getelementptr inbounds nuw (%struct.darktable_t, ptr @darktable, i32 0, i32 14), align 8, !tbaa !190
  %9 = getelementptr inbounds nuw %struct.dt_gui_gtk_t, ptr %8, i32 0, i32 5
  %10 = load i32, ptr %9, align 8, !tbaa !212
  %11 = icmp ne i32 %10, 0
  br i1 %11, label %12, label %13

12:                                               ; preds = %2
  br label %66

13:                                               ; preds = %2
  call void @llvm.lifetime.start.p0(i64 8, ptr %5) #13
  %14 = load ptr, ptr %4, align 8, !tbaa !6
  %15 = getelementptr inbounds nuw %struct.dt_iop_module_t, ptr %14, i32 0, i32 80
  %16 = load ptr, ptr %15, align 8, !tbaa !179
  store ptr %16, ptr %5, align 8, !tbaa !43
  call void @llvm.lifetime.start.p0(i64 512, ptr %6) #13
  %17 = getelementptr inbounds [512 x i8], ptr %6, i64 0, i64 0
  %18 = load ptr, ptr %3, align 8, !tbaa !197
  %19 = call ptr @dt_bauhaus_combobox_get_text(ptr noundef %18)
  %20 = call i64 @g_strlcpy(ptr noundef %17, ptr noundef %19, i64 noundef 512)
  %21 = getelementptr inbounds [512 x i8], ptr %6, i64 0, i64 0
  %22 = call i32 @g_str_has_prefix(ptr noundef %21, ptr noundef @invalid_filepath_prefix)
  %23 = icmp ne i32 %22, 0
  br i1 %23, label %65, label %24

24:                                               ; preds = %13
  %25 = getelementptr inbounds [512 x i8], ptr %6, i64 0, i64 0
  call void @filepath_set_unix_separator(ptr noundef %25)
  call void @llvm.lifetime.start.p0(i64 8, ptr %7) #13
  %26 = load ptr, ptr %4, align 8, !tbaa !6
  %27 = getelementptr inbounds nuw %struct.dt_iop_module_t, ptr %26, i32 0, i32 83
  %28 = load ptr, ptr %27, align 16, !tbaa !178
  store ptr %28, ptr %7, align 8, !tbaa !166
  %29 = getelementptr inbounds [512 x i8], ptr %6, i64 0, i64 0
  %30 = load ptr, ptr %5, align 8, !tbaa !43
  %31 = getelementptr inbounds nuw %struct.dt_iop_lut3d_params_t, ptr %30, i32 0, i32 0
  %32 = getelementptr inbounds [512 x i8], ptr %31, i64 0, i64 0
  %33 = call i32 @strcmp(ptr noundef %29, ptr noundef %32) #15
  %34 = icmp ne i32 %33, 0
  br i1 %34, label %35, label %50

35:                                               ; preds = %24
  %36 = getelementptr inbounds [512 x i8], ptr %6, i64 0, i64 0
  %37 = call i32 @g_str_has_suffix(ptr noundef %36, ptr noundef @.str.79)
  %38 = icmp ne i32 %37, 0
  br i1 %38, label %50, label %39

39:                                               ; preds = %35
  %40 = getelementptr inbounds [512 x i8], ptr %6, i64 0, i64 0
  %41 = call i32 @g_str_has_suffix(ptr noundef %40, ptr noundef @.str.129)
  %42 = icmp ne i32 %41, 0
  br i1 %42, label %50, label %43

43:                                               ; preds = %39
  %44 = load ptr, ptr %5, align 8, !tbaa !43
  %45 = getelementptr inbounds nuw %struct.dt_iop_lut3d_params_t, ptr %44, i32 0, i32 3
  store i32 0, ptr %45, align 4, !tbaa !83
  %46 = load ptr, ptr %5, align 8, !tbaa !43
  %47 = getelementptr inbounds nuw %struct.dt_iop_lut3d_params_t, ptr %46, i32 0, i32 5
  %48 = getelementptr inbounds [128 x i8], ptr %47, i64 0, i64 0
  store i8 0, ptr %48, align 4, !tbaa !47
  %49 = load ptr, ptr %7, align 8, !tbaa !166
  call void @lut3d_clear_lutname_list(ptr noundef %49)
  br label %50

50:                                               ; preds = %43, %39, %35, %24
  %51 = load ptr, ptr %5, align 8, !tbaa !43
  %52 = getelementptr inbounds nuw %struct.dt_iop_lut3d_params_t, ptr %51, i32 0, i32 0
  %53 = getelementptr inbounds [512 x i8], ptr %52, i64 0, i64 0
  %54 = getelementptr inbounds [512 x i8], ptr %6, i64 0, i64 0
  %55 = call i64 @g_strlcpy(ptr noundef %53, ptr noundef %54, i64 noundef 512)
  %56 = load ptr, ptr %4, align 8, !tbaa !6
  call void @get_compressed_clut(ptr noundef %56, i32 noundef 0)
  %57 = load ptr, ptr %4, align 8, !tbaa !6
  call void @show_hide_controls(ptr noundef %57)
  %58 = load ptr, ptr %7, align 8, !tbaa !166
  %59 = getelementptr inbounds nuw %struct.dt_iop_lut3d_gui_data_t, ptr %58, i32 0, i32 4
  %60 = load ptr, ptr %59, align 8, !tbaa !188
  %61 = call i64 @gtk_entry_get_type() #16
  %62 = call ptr @g_type_check_instance_cast(ptr noundef %60, i64 noundef %61)
  call void @gtk_entry_set_text(ptr noundef %62, ptr noundef @.str.68)
  %63 = load ptr, ptr getelementptr inbounds nuw (%struct.darktable_t, ptr @darktable, i32 0, i32 9), align 8, !tbaa !213
  %64 = load ptr, ptr %4, align 8, !tbaa !6
  call void @dt_dev_add_history_item(ptr noundef %63, ptr noundef %64, i32 noundef 1)
  call void @llvm.lifetime.end.p0(i64 8, ptr %7) #13
  br label %65

65:                                               ; preds = %50, %13
  call void @llvm.lifetime.end.p0(i64 512, ptr %6) #13
  call void @llvm.lifetime.end.p0(i64 8, ptr %5) #13
  br label %66

66:                                               ; preds = %65, %12
  ret void
}