; Function Attrs: nounwind uwtable
define internal void @filepath_callback(ptr noundef %0, ptr noundef %1) #1 {
  %3 = alloca [512 x i8], align 16
  %4 = load ptr, ptr getelementptr inbounds nuw (i8, ptr @darktable, i64 104), align 8, !tbaa !152
  %5 = getelementptr inbounds nuw i8, ptr %4, i64 96
  %6 = load i32, ptr %5, align 8, !tbaa !163
  %.not = icmp eq i32 %6, 0
  br i1 %.not, label %7, label %40

7:                                                ; preds = %2
  %8 = getelementptr inbounds nuw i8, ptr %1, i64 680
  %9 = load ptr, ptr %8, align 8, !tbaa !138
  call void @llvm.lifetime.start.p0(i64 512, ptr nonnull %3) #25
  %10 = tail call ptr @dt_bauhaus_combobox_get_text(ptr noundef %0) #25
  %11 = call i64 @g_strlcpy(ptr noundef nonnull %3, ptr noundef %10, i64 noundef 512) #25
  %12 = call i32 @g_str_has_prefix(ptr noundef nonnull %3, ptr noundef nonnull @invalid_filepath_prefix) #25
  %.not12 = icmp eq i32 %12, 0
  br i1 %.not12, label %13, label %39

13:                                               ; preds = %7
  %14 = call i64 @strlen(ptr noundef nonnull dereferenceable(1) %3) #27
  %15 = trunc i64 %14 to i32
  %16 = icmp sgt i32 %15, 0
  br i1 %16, label %.lr.ph.preheader.i, label %filepath_set_unix_separator.exit

.lr.ph.preheader.i:                               ; preds = %13
  %wide.trip.count.i = and i64 %14, 2147483647
  br label %.lr.ph.i

.lr.ph.i:                                         ; preds = %21, %.lr.ph.preheader.i
  %indvars.iv.i = phi i64 [ 0, %.lr.ph.preheader.i ], [ %indvars.iv.next.i, %21 ]
  %17 = getelementptr inbounds nuw i8, ptr %3, i64 %indvars.iv.i
  %18 = load i8, ptr %17, align 1, !tbaa !73
  %19 = icmp eq i8 %18, 92
  br i1 %19, label %20, label %21

20:                                               ; preds = %.lr.ph.i
  store i8 47, ptr %17, align 1, !tbaa !73
  br label %21

21:                                               ; preds = %20, %.lr.ph.i
  %indvars.iv.next.i = add nuw nsw i64 %indvars.iv.i, 1
  %exitcond.not.i = icmp eq i64 %indvars.iv.next.i, %wide.trip.count.i
  br i1 %exitcond.not.i, label %filepath_set_unix_separator.exit, label %.lr.ph.i

filepath_set_unix_separator.exit:                 ; preds = %21, %13
  %22 = getelementptr inbounds nuw i8, ptr %1, i64 704
  %23 = load ptr, ptr %22, align 16, !tbaa !137
  %24 = call i32 @strcmp(ptr noundef nonnull dereferenceable(1) %3, ptr noundef nonnull dereferenceable(1) %9) #27
  %.not13 = icmp eq i32 %24, 0
  br i1 %.not13, label %32, label %25

25:                                               ; preds = %filepath_set_unix_separator.exit
  %26 = call i32 @g_str_has_suffix(ptr noundef nonnull %3, ptr noundef nonnull @.str.79) #25
  %.not14 = icmp eq i32 %26, 0
  br i1 %.not14, label %27, label %32

27:                                               ; preds = %25
  %28 = call i32 @g_str_has_suffix(ptr noundef nonnull %3, ptr noundef nonnull @.str.129) #25
  %.not15 = icmp eq i32 %28, 0
  br i1 %.not15, label %29, label %32

29:                                               ; preds = %27
  %30 = getelementptr inbounds nuw i8, ptr %9, i64 520
  store i32 0, ptr %30, align 4, !tbaa !20
  %31 = getelementptr inbounds nuw i8, ptr %9, i64 12812
  store i8 0, ptr %31, align 4, !tbaa !73
  call void @lut3d_clear_lutname_list(ptr noundef %23)
  br label %32

32:                                               ; preds = %29, %27, %25, %filepath_set_unix_separator.exit
  %33 = call i64 @g_strlcpy(ptr noundef nonnull %9, ptr noundef nonnull %3, i64 noundef 512) #25
  %.val = load ptr, ptr %8, align 8, !tbaa !138
  %.val16 = load ptr, ptr %22, align 16, !tbaa !137
  call fastcc void @get_compressed_clut(ptr %.val, ptr %.val16, i32 noundef 0)
  %.val17 = load ptr, ptr %22, align 16, !tbaa !137
  call fastcc void @show_hide_controls(ptr %.val17)
  %34 = getelementptr inbounds nuw i8, ptr %23, i64 32
  %35 = load ptr, ptr %34, align 8, !tbaa !150
  %36 = tail call i64 @gtk_entry_get_type() #28
  %37 = call ptr @g_type_check_instance_cast(ptr noundef %35, i64 noundef %36) #25
  call void @gtk_entry_set_text(ptr noundef %37, ptr noundef nonnull @.str.68) #25
  %38 = load ptr, ptr getelementptr inbounds nuw (i8, ptr @darktable, i64 64), align 8, !tbaa !164
  call void @dt_dev_add_history_item(ptr noundef %38, ptr noundef nonnull %1, i32 noundef 1) #25
  br label %39

39:                                               ; preds = %32, %7
  call void @llvm.lifetime.end.p0(i64 512, ptr nonnull %3) #25
  br label %40

40:                                               ; preds = %2, %39
  ret void
}